(dp0
S'random_seeds'
p1
(lp2
I1234
aI5678
aI9101112
asS'study_names'
p3
(lp4
S'fixed_gradient_sprout_random_high_conc'
p5
aS'fixed_gradient'
p6
aS'fixed_gradient_random'
p7
aS'fixed_gradient_sprout'
p8
aS'fixed_gradient_sprout_random'
p9
aS'fixed_gradient_sprout_random_no_chemo'
p10
asS'domain_types'
p11
(lp12
S'Planar_2D'
p13
aS'Circle_2D'
p14
aS'Planar_3D'
p15
aS'Circle_3D'
p16
aS'Hemisphere'
p17
as.